target datalayout = "e-m:e-p270:32:32-p271:32:32-p272:64:64-i64:64-i128:128-f80:128-n8:16:32:64-S128"
target triple = "x86_64-pc-linux-gnu"

%"class.std::ios_base" = type { ptr, i64, i64, i32, i32, i32, ptr, %"struct.std::ios_base::_Words", [8 x %"struct.std::ios_base::_Words"], i32, ptr, %"class.std::locale" }
%"struct.std::ios_base::_Words" = type { ptr, i64 }
%"class.std::locale" = type { ptr }

$_ZNSt11char_traitsIcE6lengthEPKc = comdat any

$_ZStorSt12_Ios_IostateS_ = comdat any

@.str = private unnamed_addr constant [5 x i8] c"NONE\00", align 1
@.str.1 = private unnamed_addr constant [2 x i8] c"{\00", align 1
@.str.2 = private unnamed_addr constant [11 x i8] c" REMOVABLE\00", align 1
@.str.3 = private unnamed_addr constant [12 x i8] c" SEND_ATOMS\00", align 1
@.str.4 = private unnamed_addr constant [15 x i8] c" NEEDS_JUSTIFY\00", align 1
@.str.5 = private unnamed_addr constant [11 x i8] c" INPROCESS\00", align 1
@.str.6 = private unnamed_addr constant [7 x i8] c" LOCAL\00", align 1
@.str.7 = private unnamed_addr constant [3 x i8] c" }\00", align 1

; Function Attrs: mustprogress nounwind uwtable
define hidden noundef i32 @_ZN4cvc58internal6theoryorENS1_13LemmaPropertyES2_(i32 noundef %0, i32 noundef %1) #0 {
  %3 = alloca i32, align 4
  %4 = alloca i32, align 4
  store i32 %0, ptr %3, align 4, !tbaa !3
  store i32 %1, ptr %4, align 4, !tbaa !3
  %5 = load i32, ptr %3, align 4, !tbaa !3
  %6 = load i32, ptr %4, align 4, !tbaa !3
  %7 = or i32 %5, %6
  ret i32 %7
}

; Function Attrs: mustprogress nounwind uwtable
define hidden noundef nonnull align 4 dereferenceable(4) ptr @_ZN4cvc58internal6theoryoRERNS1_13LemmaPropertyES2_(ptr noundef nonnull align 4 dereferenceable(4) %0, i32 noundef %1) #0 {
  %3 = alloca ptr, align 8
  %4 = alloca i32, align 4
  store ptr %0, ptr %3, align 8, !tbaa !7
  store i32 %1, ptr %4, align 4, !tbaa !3
  %5 = load ptr, ptr %3, align 8, !tbaa !7
  %6 = load i32, ptr %5, align 4, !tbaa !3
  %7 = load i32, ptr %4, align 4, !tbaa !3
  %8 = call noundef i32 @_ZN4cvc58internal6theoryorENS1_13LemmaPropertyES2_(i32 noundef %6, i32 noundef %7)
  %9 = load ptr, ptr %3, align 8, !tbaa !7
  store i32 %8, ptr %9, align 4, !tbaa !3
  %10 = load ptr, ptr %3, align 8, !tbaa !7
  ret ptr %10
}

; Function Attrs: mustprogress nounwind uwtable
define hidden noundef i32 @_ZN4cvc58internal6theoryanENS1_13LemmaPropertyES2_(i32 noundef %0, i32 noundef %1) #0 {
  %3 = alloca i32, align 4
  %4 = alloca i32, align 4
  store i32 %0, ptr %3, align 4, !tbaa !3
  store i32 %1, ptr %4, align 4, !tbaa !3
  %5 = load i32, ptr %3, align 4, !tbaa !3
  %6 = load i32, ptr %4, align 4, !tbaa !3
  %7 = and i32 %5, %6
  ret i32 %7
}

; Function Attrs: mustprogress nounwind uwtable
define hidden noundef nonnull align 4 dereferenceable(4) ptr @_ZN4cvc58internal6theoryaNERNS1_13LemmaPropertyES2_(ptr noundef nonnull align 4 dereferenceable(4) %0, i32 noundef %1) #0 {
  %3 = alloca ptr, align 8
  %4 = alloca i32, align 4
  store ptr %0, ptr %3, align 8, !tbaa !7
  store i32 %1, ptr %4, align 4, !tbaa !3
  %5 = load ptr, ptr %3, align 8, !tbaa !7
  %6 = load i32, ptr %5, align 4, !tbaa !3
  %7 = load i32, ptr %4, align 4, !tbaa !3
  %8 = call noundef i32 @_ZN4cvc58internal6theoryanENS1_13LemmaPropertyES2_(i32 noundef %6, i32 noundef %7)
  %9 = load ptr, ptr %3, align 8, !tbaa !7
  store i32 %8, ptr %9, align 4, !tbaa !3
  %10 = load ptr, ptr %3, align 8, !tbaa !7
  ret ptr %10
}

; Function Attrs: mustprogress nounwind uwtable
define hidden noundef zeroext i1 @_ZN4cvc58internal6theory24isLemmaPropertyRemovableENS1_13LemmaPropertyE(i32 noundef %0) #0 {
  %2 = alloca i32, align 4
  store i32 %0, ptr %2, align 4, !tbaa !3
  %3 = load i32, ptr %2, align 4, !tbaa !3
  %4 = call noundef i32 @_ZN4cvc58internal6theoryanENS1_13LemmaPropertyES2_(i32 noundef %3, i32 noundef 1)
  %5 = icmp eq i32 %4, 1
  ret i1 %5
}

; Function Attrs: mustprogress nounwind uwtable
define hidden noundef zeroext i1 @_ZN4cvc58internal6theory24isLemmaPropertySendAtomsENS1_13LemmaPropertyE(i32 noundef %0) #0 {
  %2 = alloca i32, align 4
  store i32 %0, ptr %2, align 4, !tbaa !3
  %3 = load i32, ptr %2, align 4, !tbaa !3
  %4 = call noundef i32 @_ZN4cvc58internal6theoryanENS1_13LemmaPropertyES2_(i32 noundef %3, i32 noundef 2)
  %5 = icmp eq i32 %4, 2
  ret i1 %5
}

; Function Attrs: mustprogress nounwind uwtable
define hidden noundef zeroext i1 @_ZN4cvc58internal6theory27isLemmaPropertyNeedsJustifyENS1_13LemmaPropertyE(i32 noundef %0) #0 {
  %2 = alloca i32, align 4
  store i32 %0, ptr %2, align 4, !tbaa !3
  %3 = load i32, ptr %2, align 4, !tbaa !3
  %4 = call noundef i32 @_ZN4cvc58internal6theoryanENS1_13LemmaPropertyES2_(i32 noundef %3, i32 noundef 4)
  %5 = icmp eq i32 %4, 4
  ret i1 %5
}

; Function Attrs: mustprogress nounwind uwtable
define hidden noundef zeroext i1 @_ZN4cvc58internal6theory24isLemmaPropertyInprocessENS1_13LemmaPropertyE(i32 noundef %0) #0 {
  %2 = alloca i32, align 4
  store i32 %0, ptr %2, align 4, !tbaa !3
  %3 = load i32, ptr %2, align 4, !tbaa !3
  %4 = call noundef i32 @_ZN4cvc58internal6theoryanENS1_13LemmaPropertyES2_(i32 noundef %3, i32 noundef 8)
  %5 = icmp eq i32 %4, 8
  ret i1 %5
}

; Function Attrs: mustprogress nounwind uwtable
define hidden noundef zeroext i1 @_ZN4cvc58internal6theory20isLemmaPropertyLocalENS1_13LemmaPropertyE(i32 noundef %0) #0 {
  %2 = alloca i32, align 4
  store i32 %0, ptr %2, align 4, !tbaa !3
  %3 = load i32, ptr %2, align 4, !tbaa !3
  %4 = call noundef i32 @_ZN4cvc58internal6theoryanENS1_13LemmaPropertyES2_(i32 noundef %3, i32 noundef 16)
  %5 = icmp eq i32 %4, 16
  ret i1 %5
}

; Function Attrs: mustprogress uwtable
define hidden noundef nonnull align 8 dereferenceable(8) ptr @_ZN4cvc58internal6theorylsERSoNS1_13LemmaPropertyE(ptr noundef nonnull align 8 dereferenceable(8) %0, i32 noundef %1) #1 {
  %3 = alloca ptr, align 8
  %4 = alloca i32, align 4
  store ptr %0, ptr %3, align 8, !tbaa !9
  store i32 %1, ptr %4, align 4, !tbaa !3
  %5 = load i32, ptr %4, align 4, !tbaa !3
  %6 = icmp eq i32 %5, 0
  br i1 %6, label %7, label %10

7:                                                ; preds = %2
  %8 = load ptr, ptr %3, align 8, !tbaa !9
  %9 = call noundef nonnull align 8 dereferenceable(8) ptr @_ZStlsISt11char_traitsIcEERSt13basic_ostreamIcT_ES5_PKc(ptr noundef nonnull align 8 dereferenceable(8) %8, ptr noundef @.str)
  br label %45

10:                                               ; preds = %2
  %11 = load ptr, ptr %3, align 8, !tbaa !9
  %12 = call noundef nonnull align 8 dereferenceable(8) ptr @_ZStlsISt11char_traitsIcEERSt13basic_ostreamIcT_ES5_PKc(ptr noundef nonnull align 8 dereferenceable(8) %11, ptr noundef @.str.1)
  %13 = load i32, ptr %4, align 4, !tbaa !3
  %14 = call noundef zeroext i1 @_ZN4cvc58internal6theory24isLemmaPropertyRemovableENS1_13LemmaPropertyE(i32 noundef %13)
  br i1 %14, label %15, label %18

15:                                               ; preds = %10
  %16 = load ptr, ptr %3, align 8, !tbaa !9
  %17 = call noundef nonnull align 8 dereferenceable(8) ptr @_ZStlsISt11char_traitsIcEERSt13basic_ostreamIcT_ES5_PKc(ptr noundef nonnull align 8 dereferenceable(8) %16, ptr noundef @.str.2)
  br label %18

18:                                               ; preds = %15, %10
  %19 = load i32, ptr %4, align 4, !tbaa !3
  %20 = call noundef zeroext i1 @_ZN4cvc58internal6theory24isLemmaPropertySendAtomsENS1_13LemmaPropertyE(i32 noundef %19)
  br i1 %20, label %21, label %24

21:                                               ; preds = %18
  %22 = load ptr, ptr %3, align 8, !tbaa !9
  %23 = call noundef nonnull align 8 dereferenceable(8) ptr @_ZStlsISt11char_traitsIcEERSt13basic_ostreamIcT_ES5_PKc(ptr noundef nonnull align 8 dereferenceable(8) %22, ptr noundef @.str.3)
  br label %24

24:                                               ; preds = %21, %18
  %25 = load i32, ptr %4, align 4, !tbaa !3
  %26 = call noundef zeroext i1 @_ZN4cvc58internal6theory27isLemmaPropertyNeedsJustifyENS1_13LemmaPropertyE(i32 noundef %25)
  br i1 %26, label %27, label %30

27:                                               ; preds = %24
  %28 = load ptr, ptr %3, align 8, !tbaa !9
  %29 = call noundef nonnull align 8 dereferenceable(8) ptr @_ZStlsISt11char_traitsIcEERSt13basic_ostreamIcT_ES5_PKc(ptr noundef nonnull align 8 dereferenceable(8) %28, ptr noundef @.str.4)
  br label %30

30:                                               ; preds = %27, %24
  %31 = load i32, ptr %4, align 4, !tbaa !3
  %32 = call noundef zeroext i1 @_ZN4cvc58internal6theory24isLemmaPropertyInprocessENS1_13LemmaPropertyE(i32 noundef %31)
  br i1 %32, label %33, label %36

33:                                               ; preds = %30
  %34 = load ptr, ptr %3, align 8, !tbaa !9
  %35 = call noundef nonnull align 8 dereferenceable(8) ptr @_ZStlsISt11char_traitsIcEERSt13basic_ostreamIcT_ES5_PKc(ptr noundef nonnull align 8 dereferenceable(8) %34, ptr noundef @.str.5)
  br label %36

36:                                               ; preds = %33, %30
  %37 = load i32, ptr %4, align 4, !tbaa !3
  %38 = call noundef zeroext i1 @_ZN4cvc58internal6theory20isLemmaPropertyLocalENS1_13LemmaPropertyE(i32 noundef %37)
  br i1 %38, label %39, label %42

39:                                               ; preds = %36
  %40 = load ptr, ptr %3, align 8, !tbaa !9
  %41 = call noundef nonnull align 8 dereferenceable(8) ptr @_ZStlsISt11char_traitsIcEERSt13basic_ostreamIcT_ES5_PKc(ptr noundef nonnull align 8 dereferenceable(8) %40, ptr noundef @.str.6)
  br label %42

42:                                               ; preds = %39, %36
  %43 = load ptr, ptr %3, align 8, !tbaa !9
  %44 = call noundef nonnull align 8 dereferenceable(8) ptr @_ZStlsISt11char_traitsIcEERSt13basic_ostreamIcT_ES5_PKc(ptr noundef nonnull align 8 dereferenceable(8) %43, ptr noundef @.str.7)
  br label %45

45:                                               ; preds = %42, %7
  %46 = load ptr, ptr %3, align 8, !tbaa !9
  ret ptr %46
}

; Function Attrs: inlinehint mustprogress uwtable
define available_externally noundef nonnull align 8 dereferenceable(8) ptr @_ZStlsISt11char_traitsIcEERSt13basic_ostreamIcT_ES5_PKc(ptr noundef nonnull align 8 dereferenceable(8) %0, ptr noundef %1) #2 {
  %3 = alloca ptr, align 8
  %4 = alloca ptr, align 8
  store ptr %0, ptr %3, align 8, !tbaa !9
  store ptr %1, ptr %4, align 8, !tbaa !11
  %5 = load ptr, ptr %4, align 8, !tbaa !11
  %6 = icmp ne ptr %5, null
  br i1 %6, label %13, label %7

7:                                                ; preds = %2
  %8 = load ptr, ptr %3, align 8, !tbaa !9
  %9 = load ptr, ptr %8, align 8, !tbaa !13
  %10 = getelementptr i8, ptr %9, i64 -24
  %11 = load i64, ptr %10, align 8
  %12 = getelementptr inbounds i8, ptr %8, i64 %11
  call void @_ZNSt9basic_iosIcSt11char_traitsIcEE8setstateESt12_Ios_Iostate(ptr noundef nonnull align 8 dereferenceable(264) %12, i32 noundef 1)
  br label %19

13:                                               ; preds = %2
  %14 = load ptr, ptr %3, align 8, !tbaa !9
  %15 = load ptr, ptr %4, align 8, !tbaa !11
  %16 = load ptr, ptr %4, align 8, !tbaa !11
  %17 = call noundef i64 @_ZNSt11char_traitsIcE6lengthEPKc(ptr noundef %16)
  %18 = call noundef nonnull align 8 dereferenceable(8) ptr @_ZSt16__ostream_insertIcSt11char_traitsIcEERSt13basic_ostreamIT_T0_ES6_PKS3_l(ptr noundef nonnull align 8 dereferenceable(8) %14, ptr noundef %15, i64 noundef %17)
  br label %19

19:                                               ; preds = %13, %7
  %20 = load ptr, ptr %3, align 8, !tbaa !9
  ret ptr %20
}

; Function Attrs: mustprogress uwtable
define available_externally void @_ZNSt9basic_iosIcSt11char_traitsIcEE8setstateESt12_Ios_Iostate(ptr noundef nonnull align 8 dereferenceable(264) %0, i32 noundef %1) #1 align 2 {
  %3 = alloca ptr, align 8
  %4 = alloca i32, align 4
  store ptr %0, ptr %3, align 8, !tbaa !15
  store i32 %1, ptr %4, align 4, !tbaa !17
  %5 = load ptr, ptr %3, align 8
  %6 = call noundef i32 @_ZNKSt9basic_iosIcSt11char_traitsIcEE7rdstateEv(ptr noundef nonnull align 8 dereferenceable(264) %5)
  %7 = load i32, ptr %4, align 4, !tbaa !17
  %8 = call noundef i32 @_ZStorSt12_Ios_IostateS_(i32 noundef %6, i32 noundef %7)
  call void @_ZNSt9basic_iosIcSt11char_traitsIcEE5clearESt12_Ios_Iostate(ptr noundef nonnull align 8 dereferenceable(264) %5, i32 noundef %8)
  ret void
}

declare noundef nonnull align 8 dereferenceable(8) ptr @_ZSt16__ostream_insertIcSt11char_traitsIcEERSt13basic_ostreamIT_T0_ES6_PKS3_l(ptr noundef nonnull align 8 dereferenceable(8), ptr noundef, i64 noundef) #3

; Function Attrs: mustprogress nounwind uwtable
define linkonce_odr hidden noundef i64 @_ZNSt11char_traitsIcE6lengthEPKc(ptr noundef %0) #0 comdat align 2 {
  %2 = alloca ptr, align 8
  store ptr %0, ptr %2, align 8, !tbaa !11
  %3 = load ptr, ptr %2, align 8, !tbaa !11
  %4 = call i64 @strlen(ptr noundef %3) #6
  ret i64 %4
}

declare void @_ZNSt9basic_iosIcSt11char_traitsIcEE5clearESt12_Ios_Iostate(ptr noundef nonnull align 8 dereferenceable(264), i32 noundef) #3

; Function Attrs: inlinehint mustprogress nounwind uwtable
define linkonce_odr noundef i32 @_ZStorSt12_Ios_IostateS_(i32 noundef %0, i32 noundef %1) #4 comdat {
  %3 = alloca i32, align 4
  %4 = alloca i32, align 4
  store i32 %0, ptr %3, align 4, !tbaa !17
  store i32 %1, ptr %4, align 4, !tbaa !17
  %5 = load i32, ptr %3, align 4, !tbaa !17
  %6 = load i32, ptr %4, align 4, !tbaa !17
  %7 = or i32 %5, %6
  ret i32 %7
}

; Function Attrs: mustprogress nounwind uwtable
define available_externally noundef i32 @_ZNKSt9basic_iosIcSt11char_traitsIcEE7rdstateEv(ptr noundef nonnull align 8 dereferenceable(264) %0) #0 align 2 {
  %2 = alloca ptr, align 8
  store ptr %0, ptr %2, align 8, !tbaa !15
  %3 = load ptr, ptr %2, align 8
  %4 = getelementptr inbounds nuw %"class.std::ios_base", ptr %3, i32 0, i32 5
  %5 = load i32, ptr %4, align 8, !tbaa !19
  ret i32 %5
}

; Function Attrs: nounwind
declare i64 @strlen(ptr noundef) #5


!llvm.module.flags = !{!0, !1, !2}

!0 = !{i32 1, !"wchar_size", i32 4}
!1 = !{i32 8, !"PIC Level", i32 2}
!2 = !{i32 7, !"uwtable", i32 2}
!3 = !{!4, !4, i64 0}
!4 = !{!"_ZTSN4cvc58internal6theory13LemmaPropertyE", !5, i64 0}
!5 = !{!"omnipotent char", !6, i64 0}
!6 = !{!"Simple C++ TBAA"}
!7 = !{!8, !8, i64 0}
!8 = !{!"any pointer", !5, i64 0}
!9 = !{!10, !10, i64 0}
!10 = !{!"p1 _ZTSSo", !8, i64 0}
!11 = !{!12, !12, i64 0}
!12 = !{!"p1 omnipotent char", !8, i64 0}
!13 = !{!14, !14, i64 0}
!14 = !{!"vtable pointer", !6, i64 0}
!15 = !{!16, !16, i64 0}
!16 = !{!"p1 _ZTSSt9basic_iosIcSt11char_traitsIcEE", !8, i64 0}
!17 = !{!18, !18, i64 0}
!18 = !{!"_ZTSSt12_Ios_Iostate", !5, i64 0}
!19 = !{!20, !18, i64 32}
!20 = !{!"_ZTSSt8ios_base", !21, i64 8, !21, i64 16, !22, i64 24, !18, i64 28, !18, i64 32, !23, i64 40, !24, i64 48, !5, i64 64, !25, i64 192, !26, i64 200, !27, i64 208}
!21 = !{!"long", !5, i64 0}
!22 = !{!"_ZTSSt13_Ios_Fmtflags", !5, i64 0}
!23 = !{!"p1 _ZTSNSt8ios_base14_Callback_listE", !8, i64 0}
!24 = !{!"_ZTSNSt8ios_base6_WordsE", !8, i64 0, !21, i64 8}
!25 = !{!"int", !5, i64 0}
!26 = !{!"p1 _ZTSNSt8ios_base6_WordsE", !8, i64 0}
!27 = !{!"_ZTSSt6locale", !28, i64 0}
!28 = !{!"p1 _ZTSNSt6locale5_ImplE", !8, i64 0}
