; ModuleID = 'bench/cvc5/original/lemma_property.ll'
source_filename = "bench/cvc5/original/lemma_property.ll"
target datalayout = "e-m:e-p270:32:32-p271:32:32-p272:64:64-i64:64-i128:128-f80:128-n8:16:32:64-S128"
target triple = "x86_64-pc-linux-gnu"

@.str = private unnamed_addr constant [5 x i8] c"NONE\00", align 1
@.str.1 = private unnamed_addr constant [2 x i8] c"{\00", align 1
@.str.2 = private unnamed_addr constant [11 x i8] c" REMOVABLE\00", align 1
@.str.3 = private unnamed_addr constant [12 x i8] c" SEND_ATOMS\00", align 1
@.str.4 = private unnamed_addr constant [15 x i8] c" NEEDS_JUSTIFY\00", align 1
@.str.5 = private unnamed_addr constant [11 x i8] c" INPROCESS\00", align 1
@.str.6 = private unnamed_addr constant [7 x i8] c" LOCAL\00", align 1
@.str.7 = private unnamed_addr constant [3 x i8] c" }\00", align 1

; Function Attrs: mustprogress nofree norecurse nosync nounwind willreturn memory(none) uwtable
define hidden noundef i32 @_ZN4cvc58internal6theoryorENS1_13LemmaPropertyES2_(i32 noundef %0, i32 noundef %1) local_unnamed_addr #0 {
  %3 = or i32 %1, %0
  ret i32 %3
}

; Function Attrs: mustprogress nofree norecurse nosync nounwind willreturn memory(argmem: readwrite) uwtable
define hidden noundef nonnull align 4 dereferenceable(4) ptr @_ZN4cvc58internal6theoryoRERNS1_13LemmaPropertyES2_(ptr noundef nonnull returned align 4 captures(ret: address, provenance) dereferenceable(4) %0, i32 noundef %1) local_unnamed_addr #1 {
  %3 = load i32, ptr %0, align 4, !tbaa !3
  %4 = or i32 %3, %1
  store i32 %4, ptr %0, align 4, !tbaa !3
  ret ptr %0
}

; Function Attrs: mustprogress nofree norecurse nosync nounwind willreturn memory(none) uwtable
define hidden noundef i32 @_ZN4cvc58internal6theoryanENS1_13LemmaPropertyES2_(i32 noundef %0, i32 noundef %1) local_unnamed_addr #0 {
  %3 = and i32 %1, %0
  ret i32 %3
}

; Function Attrs: mustprogress nofree norecurse nosync nounwind willreturn memory(argmem: readwrite) uwtable
define hidden noundef nonnull align 4 dereferenceable(4) ptr @_ZN4cvc58internal6theoryaNERNS1_13LemmaPropertyES2_(ptr noundef nonnull returned align 4 captures(ret: address, provenance) dereferenceable(4) %0, i32 noundef %1) local_unnamed_addr #1 {
  %3 = load i32, ptr %0, align 4, !tbaa !3
  %4 = and i32 %3, %1
  store i32 %4, ptr %0, align 4, !tbaa !3
  ret ptr %0
}

; Function Attrs: mustprogress nofree norecurse nosync nounwind willreturn memory(none) uwtable
define hidden noundef zeroext i1 @_ZN4cvc58internal6theory24isLemmaPropertyRemovableENS1_13LemmaPropertyE(i32 noundef %0) local_unnamed_addr #0 {
  %2 = and i32 %0, 1
  %3 = icmp ne i32 %2, 0
  ret i1 %3
}

; Function Attrs: mustprogress nofree norecurse nosync nounwind willreturn memory(none) uwtable
define hidden noundef zeroext i1 @_ZN4cvc58internal6theory24isLemmaPropertySendAtomsENS1_13LemmaPropertyE(i32 noundef %0) local_unnamed_addr #0 {
  %2 = and i32 %0, 2
  %3 = icmp ne i32 %2, 0
  ret i1 %3
}

; Function Attrs: mustprogress nofree norecurse nosync nounwind willreturn memory(none) uwtable
define hidden noundef zeroext i1 @_ZN4cvc58internal6theory27isLemmaPropertyNeedsJustifyENS1_13LemmaPropertyE(i32 noundef %0) local_unnamed_addr #0 {
  %2 = and i32 %0, 4
  %3 = icmp ne i32 %2, 0
  ret i1 %3
}

; Function Attrs: mustprogress nofree norecurse nosync nounwind willreturn memory(none) uwtable
define hidden noundef zeroext i1 @_ZN4cvc58internal6theory24isLemmaPropertyInprocessENS1_13LemmaPropertyE(i32 noundef %0) local_unnamed_addr #0 {
  %2 = and i32 %0, 8
  %3 = icmp ne i32 %2, 0
  ret i1 %3
}

; Function Attrs: mustprogress nofree norecurse nosync nounwind willreturn memory(none) uwtable
define hidden noundef zeroext i1 @_ZN4cvc58internal6theory20isLemmaPropertyLocalENS1_13LemmaPropertyE(i32 noundef %0) local_unnamed_addr #0 {
  %2 = and i32 %0, 16
  %3 = icmp ne i32 %2, 0
  ret i1 %3
}

; Function Attrs: mustprogress uwtable
define hidden noundef nonnull align 8 dereferenceable(8) ptr @_ZN4cvc58internal6theorylsERSoNS1_13LemmaPropertyE(ptr noundef nonnull returned align 8 dereferenceable(8) %0, i32 noundef %1) local_unnamed_addr #2 {
  %3 = icmp eq i32 %1, 0
  br i1 %3, label %4, label %6

4:                                                ; preds = %2
  %5 = tail call noundef nonnull align 8 dereferenceable(8) ptr @_ZSt16__ostream_insertIcSt11char_traitsIcEERSt13basic_ostreamIT_T0_ES6_PKS3_l(ptr noundef nonnull align 8 dereferenceable(8) %0, ptr noundef nonnull @.str, i64 noundef 4)
  br label %29

6:                                                ; preds = %2
  %7 = tail call noundef nonnull align 8 dereferenceable(8) ptr @_ZSt16__ostream_insertIcSt11char_traitsIcEERSt13basic_ostreamIT_T0_ES6_PKS3_l(ptr noundef nonnull align 8 dereferenceable(8) %0, ptr noundef nonnull @.str.1, i64 noundef 1)
  %8 = and i32 %1, 1
  %.not = icmp eq i32 %8, 0
  br i1 %.not, label %11, label %9

9:                                                ; preds = %6
  %10 = tail call noundef nonnull align 8 dereferenceable(8) ptr @_ZSt16__ostream_insertIcSt11char_traitsIcEERSt13basic_ostreamIT_T0_ES6_PKS3_l(ptr noundef nonnull align 8 dereferenceable(8) %0, ptr noundef nonnull @.str.2, i64 noundef 10)
  br label %11

11:                                               ; preds = %9, %6
  %12 = and i32 %1, 2
  %.not14 = icmp eq i32 %12, 0
  br i1 %.not14, label %15, label %13

13:                                               ; preds = %11
  %14 = tail call noundef nonnull align 8 dereferenceable(8) ptr @_ZSt16__ostream_insertIcSt11char_traitsIcEERSt13basic_ostreamIT_T0_ES6_PKS3_l(ptr noundef nonnull align 8 dereferenceable(8) %0, ptr noundef nonnull @.str.3, i64 noundef 11)
  br label %15

15:                                               ; preds = %13, %11
  %16 = and i32 %1, 4
  %.not15 = icmp eq i32 %16, 0
  br i1 %.not15, label %19, label %17

17:                                               ; preds = %15
  %18 = tail call noundef nonnull align 8 dereferenceable(8) ptr @_ZSt16__ostream_insertIcSt11char_traitsIcEERSt13basic_ostreamIT_T0_ES6_PKS3_l(ptr noundef nonnull align 8 dereferenceable(8) %0, ptr noundef nonnull @.str.4, i64 noundef 14)
  br label %19

19:                                               ; preds = %17, %15
  %20 = and i32 %1, 8
  %.not16 = icmp eq i32 %20, 0
  br i1 %.not16, label %23, label %21

21:                                               ; preds = %19
  %22 = tail call noundef nonnull align 8 dereferenceable(8) ptr @_ZSt16__ostream_insertIcSt11char_traitsIcEERSt13basic_ostreamIT_T0_ES6_PKS3_l(ptr noundef nonnull align 8 dereferenceable(8) %0, ptr noundef nonnull @.str.5, i64 noundef 10)
  br label %23

23:                                               ; preds = %21, %19
  %24 = and i32 %1, 16
  %.not17 = icmp eq i32 %24, 0
  br i1 %.not17, label %27, label %25

25:                                               ; preds = %23
  %26 = tail call noundef nonnull align 8 dereferenceable(8) ptr @_ZSt16__ostream_insertIcSt11char_traitsIcEERSt13basic_ostreamIT_T0_ES6_PKS3_l(ptr noundef nonnull align 8 dereferenceable(8) %0, ptr noundef nonnull @.str.6, i64 noundef 6)
  br label %27

27:                                               ; preds = %25, %23
  %28 = tail call noundef nonnull align 8 dereferenceable(8) ptr @_ZSt16__ostream_insertIcSt11char_traitsIcEERSt13basic_ostreamIT_T0_ES6_PKS3_l(ptr noundef nonnull align 8 dereferenceable(8) %0, ptr noundef nonnull @.str.7, i64 noundef 2)
  br label %29

29:                                               ; preds = %27, %4
  ret ptr %0
}

declare noundef nonnull align 8 dereferenceable(8) ptr @_ZSt16__ostream_insertIcSt11char_traitsIcEERSt13basic_ostreamIT_T0_ES6_PKS3_l(ptr noundef nonnull align 8 dereferenceable(8), ptr noundef, i64 noundef) local_unnamed_addr #3


!llvm.module.flags = !{!0, !1, !2}

!0 = !{i32 1, !"wchar_size", i32 4}
!1 = !{i32 8, !"PIC Level", i32 2}
!2 = !{i32 7, !"uwtable", i32 2}
!3 = !{!4, !4, i64 0}
!4 = !{!"_ZTSN4cvc58internal6theory13LemmaPropertyE", !5, i64 0}
!5 = !{!"omnipotent char", !6, i64 0}
!6 = !{!"Simple C++ TBAA"}
